target datalayout = "e-m:e-p270:32:32-p271:32:32-p272:64:64-i64:64-i128:128-f80:128-n8:16:32:64-S128"
target triple = "x86_64-pc-linux-gnu"

%struct.Vec_Int_t_ = type { i32, i32, ptr }

; Function Attrs: inlinehint nounwind uwtable
define internal i32 @Abc_CostCubes(i64 noundef %0) #2 {
  %2 = alloca i64, align 8
  store i64 %0, ptr %2, align 8, !tbaa !3
  %3 = load i64, ptr %2, align 8, !tbaa !3
  %4 = lshr i64 %3, 32
  %5 = trunc i64 %4 to i32
  ret i32 %5
}

; Function Attrs: inlinehint nounwind uwtable
define internal ptr @Vec_IntArray(ptr noundef %0) #2 {
  %2 = alloca ptr, align 8
  store ptr %0, ptr %2, align 8, !tbaa !25
  %3 = load ptr, ptr %2, align 8, !tbaa !25
  %4 = getelementptr inbounds nuw %struct.Vec_Int_t_, ptr %3, i32 0, i32 2
  %5 = load ptr, ptr %4, align 8, !tbaa !34
  ret ptr %5
}

; Function Attrs: inlinehint nounwind uwtable
define internal i64 @Abc_MinWord(i64 noundef %0, i64 noundef %1) #2 {
  %3 = alloca i64, align 8
  %4 = alloca i64, align 8
  store i64 %0, ptr %3, align 8, !tbaa !3
  store i64 %1, ptr %4, align 8, !tbaa !3
  %5 = load i64, ptr %3, align 8, !tbaa !3
  %6 = load i64, ptr %4, align 8, !tbaa !3
  %7 = icmp ult i64 %5, %6
  br i1 %7, label %8, label %10

8:                                                ; preds = %2
  %9 = load i64, ptr %3, align 8, !tbaa !3
  br label %12

10:                                               ; preds = %2
  %11 = load i64, ptr %4, align 8, !tbaa !3
  br label %12

12:                                               ; preds = %10, %8
  %13 = phi i64 [ %9, %8 ], [ %11, %10 ]
  ret i64 %13
}

; Function Attrs: inlinehint nounwind uwtable
define internal void @Abc_TtNot(ptr noundef %0, i32 noundef %1) #2 {
  %3 = alloca ptr, align 8
  %4 = alloca i32, align 4
  %5 = alloca i32, align 4
  store ptr %0, ptr %3, align 8, !tbaa !7
  store i32 %1, ptr %4, align 4, !tbaa !10
  call void @llvm.lifetime.start.p0(i64 4, ptr %5) #9
  store i32 0, ptr %5, align 4, !tbaa !10
  br label %6

6:                                                ; preds = %21, %2
  %7 = load i32, ptr %5, align 4, !tbaa !10
  %8 = load i32, ptr %4, align 4, !tbaa !10
  %9 = icmp slt i32 %7, %8
  br i1 %9, label %10, label %24

10:                                               ; preds = %6
  %11 = load ptr, ptr %3, align 8, !tbaa !7
  %12 = load i32, ptr %5, align 4, !tbaa !10
  %13 = sext i32 %12 to i64
  %14 = getelementptr inbounds i64, ptr %11, i64 %13
  %15 = load i64, ptr %14, align 8, !tbaa !3
  %16 = xor i64 %15, -1
  %17 = load ptr, ptr %3, align 8, !tbaa !7
  %18 = load i32, ptr %5, align 4, !tbaa !10
  %19 = sext i32 %18 to i64
  %20 = getelementptr inbounds i64, ptr %17, i64 %19
  store i64 %16, ptr %20, align 8, !tbaa !3
  br label %21

21:                                               ; preds = %10
  %22 = load i32, ptr %5, align 4, !tbaa !10
  %23 = add nsw i32 %22, 1
  store i32 %23, ptr %5, align 4, !tbaa !10
  br label %6, !llvm.loop !42

24:                                               ; preds = %6
  call void @llvm.lifetime.end.p0(i64 4, ptr %5) #9
  ret void
}

; Function Attrs: inlinehint nounwind uwtable
define internal i32 @Abc_TtWordNum(i32 noundef %0) #2 {
  %2 = alloca i32, align 4
  store i32 %0, ptr %2, align 4, !tbaa !10
  %3 = load i32, ptr %2, align 4, !tbaa !10
  %4 = icmp sle i32 %3, 6
  br i1 %4, label %5, label %6

5:                                                ; preds = %1
  br label %10

6:                                                ; preds = %1
  %7 = load i32, ptr %2, align 4, !tbaa !10
  %8 = sub nsw i32 %7, 6
  %9 = shl i32 1, %8
  br label %10

10:                                               ; preds = %6, %5
  %11 = phi i32 [ 1, %5 ], [ %9, %6 ]
  ret i32 %11
}

; Function Attrs: inlinehint nounwind uwtable
define internal void @Vec_IntGrow(ptr noundef %0, i32 noundef %1) #2 {
  %3 = alloca ptr, align 8
  %4 = alloca i32, align 4
  store ptr %0, ptr %3, align 8, !tbaa !25
  store i32 %1, ptr %4, align 4, !tbaa !10
  %5 = load ptr, ptr %3, align 8, !tbaa !25
  %6 = getelementptr inbounds nuw %struct.Vec_Int_t_, ptr %5, i32 0, i32 0
  %7 = load i32, ptr %6, align 8, !tbaa !43
  %8 = load i32, ptr %4, align 4, !tbaa !10
  %9 = icmp sge i32 %7, %8
  br i1 %9, label %10, label %11

10:                                               ; preds = %2
  br label %36

11:                                               ; preds = %2
  %12 = load ptr, ptr %3, align 8, !tbaa !25
  %13 = getelementptr inbounds nuw %struct.Vec_Int_t_, ptr %12, i32 0, i32 2
  %14 = load ptr, ptr %13, align 8, !tbaa !34
  %15 = icmp ne ptr %14, null
  br i1 %15, label %16, label %24

16:                                               ; preds = %11
  %17 = load ptr, ptr %3, align 8, !tbaa !25
  %18 = getelementptr inbounds nuw %struct.Vec_Int_t_, ptr %17, i32 0, i32 2
  %19 = load ptr, ptr %18, align 8, !tbaa !34
  %20 = load i32, ptr %4, align 4, !tbaa !10
  %21 = sext i32 %20 to i64
  %22 = mul i64 4, %21
  %23 = call ptr @realloc(ptr noundef %19, i64 noundef %22) #10
  br label %29

24:                                               ; preds = %11
  %25 = load i32, ptr %4, align 4, !tbaa !10
  %26 = sext i32 %25 to i64
  %27 = mul i64 4, %26
  %28 = call noalias ptr @malloc(i64 noundef %27) #11
  br label %29

29:                                               ; preds = %24, %16
  %30 = phi ptr [ %23, %16 ], [ %28, %24 ]
  %31 = load ptr, ptr %3, align 8, !tbaa !25
  %32 = getelementptr inbounds nuw %struct.Vec_Int_t_, ptr %31, i32 0, i32 2
  store ptr %30, ptr %32, align 8, !tbaa !34
  %33 = load i32, ptr %4, align 4, !tbaa !10
  %34 = load ptr, ptr %3, align 8, !tbaa !25
  %35 = getelementptr inbounds nuw %struct.Vec_Int_t_, ptr %34, i32 0, i32 0
  store i32 %33, ptr %35, align 8, !tbaa !43
  br label %36

36:                                               ; preds = %29, %10
  ret void
}

; Function Attrs: inlinehint nounwind uwtable
define internal i64 @Abc_Cube2Cost(i32 noundef %0) #2 {
  %2 = alloca i32, align 4
  store i32 %0, ptr %2, align 4, !tbaa !10
  %3 = load i32, ptr %2, align 4, !tbaa !10
  %4 = sext i32 %3 to i64
  %5 = shl i64 %4, 32
  ret i64 %5
}

; Function Attrs: nounwind uwtable
define i32 @Abc_Isop(ptr noundef %0, i32 noundef %1, i32 noundef %2, ptr noundef %3, i32 noundef %4) #0 {
  %6 = alloca i32, align 4
  %7 = alloca ptr, align 8
  %8 = alloca i32, align 4
  %9 = alloca i32, align 4
  %10 = alloca ptr, align 8
  %11 = alloca i32, align 4
  %12 = alloca [1024 x i64], align 16
  %13 = alloca i64, align 8
  %14 = alloca i64, align 8
  %15 = alloca i64, align 8
  %16 = alloca i64, align 8
  %17 = alloca i32, align 4
  store ptr %0, ptr %7, align 8, !tbaa !7
  store i32 %1, ptr %8, align 4, !tbaa !10
  store i32 %2, ptr %9, align 4, !tbaa !10
  store ptr %3, ptr %10, align 8, !tbaa !25
  store i32 %4, ptr %11, align 4, !tbaa !10
  call void @llvm.lifetime.start.p0(i64 8192, ptr %12) #9
  call void @llvm.lifetime.start.p0(i64 8, ptr %13) #9
  call void @llvm.lifetime.start.p0(i64 8, ptr %14) #9
  call void @llvm.lifetime.start.p0(i64 8, ptr %15) #9
  call void @llvm.lifetime.start.p0(i64 8, ptr %16) #9
  %18 = load i32, ptr %9, align 4, !tbaa !10
  %19 = call i64 @Abc_Cube2Cost(i32 noundef %18)
  store i64 %19, ptr %16, align 8, !tbaa !3
  %20 = load ptr, ptr %10, align 8, !tbaa !25
  %21 = load i32, ptr %8, align 4, !tbaa !10
  %22 = sub nsw i32 %21, 1
  %23 = shl i32 1, %22
  call void @Vec_IntGrow(ptr noundef %20, i32 noundef %23)
  %24 = load i32, ptr %11, align 4, !tbaa !10
  %25 = icmp ne i32 %24, 0
  br i1 %25, label %26, label %81

26:                                               ; preds = %5
  %27 = load ptr, ptr %7, align 8, !tbaa !7
  %28 = load ptr, ptr %7, align 8, !tbaa !7
  %29 = getelementptr inbounds [1024 x i64], ptr %12, i64 0, i64 0
  %30 = load i32, ptr %8, align 4, !tbaa !10
  %31 = load i64, ptr %16, align 8, !tbaa !3
  %32 = call i64 @Abc_IsopCheck(ptr noundef %27, ptr noundef %28, ptr noundef %29, i32 noundef %30, i64 noundef %31, ptr noundef null)
  store i64 %32, ptr %13, align 8, !tbaa !3
  %33 = load ptr, ptr %7, align 8, !tbaa !7
  %34 = load i32, ptr %8, align 4, !tbaa !10
  %35 = call i32 @Abc_TtWordNum(i32 noundef %34)
  call void @Abc_TtNot(ptr noundef %33, i32 noundef %35)
  %36 = load ptr, ptr %7, align 8, !tbaa !7
  %37 = load ptr, ptr %7, align 8, !tbaa !7
  %38 = getelementptr inbounds [1024 x i64], ptr %12, i64 0, i64 0
  %39 = load i32, ptr %8, align 4, !tbaa !10
  %40 = load i64, ptr %13, align 8, !tbaa !3
  %41 = call i64 @Abc_IsopCheck(ptr noundef %36, ptr noundef %37, ptr noundef %38, i32 noundef %39, i64 noundef %40, ptr noundef null)
  store i64 %41, ptr %14, align 8, !tbaa !3
  %42 = load i64, ptr %13, align 8, !tbaa !3
  %43 = load i64, ptr %14, align 8, !tbaa !3
  %44 = call i64 @Abc_MinWord(i64 noundef %42, i64 noundef %43)
  store i64 %44, ptr %15, align 8, !tbaa !3
  %45 = load i64, ptr %15, align 8, !tbaa !3
  %46 = load i64, ptr %16, align 8, !tbaa !3
  %47 = icmp eq i64 %45, %46
  br i1 %47, label %48, label %52

48:                                               ; preds = %26
  %49 = load ptr, ptr %7, align 8, !tbaa !7
  %50 = load i32, ptr %8, align 4, !tbaa !10
  %51 = call i32 @Abc_TtWordNum(i32 noundef %50)
  call void @Abc_TtNot(ptr noundef %49, i32 noundef %51)
  store i32 -1, ptr %6, align 4
  store i32 1, ptr %17, align 4
  br label %104

52:                                               ; preds = %26
  %53 = load i64, ptr %15, align 8, !tbaa !3
  %54 = load i64, ptr %13, align 8, !tbaa !3
  %55 = icmp eq i64 %53, %54
  br i1 %55, label %56, label %68

56:                                               ; preds = %52
  %57 = load ptr, ptr %7, align 8, !tbaa !7
  %58 = load i32, ptr %8, align 4, !tbaa !10
  %59 = call i32 @Abc_TtWordNum(i32 noundef %58)
  call void @Abc_TtNot(ptr noundef %57, i32 noundef %59)
  %60 = load ptr, ptr %7, align 8, !tbaa !7
  %61 = load ptr, ptr %7, align 8, !tbaa !7
  %62 = getelementptr inbounds [1024 x i64], ptr %12, i64 0, i64 0
  %63 = load i32, ptr %8, align 4, !tbaa !10
  %64 = load i64, ptr %16, align 8, !tbaa !3
  %65 = load ptr, ptr %10, align 8, !tbaa !25
  %66 = call ptr @Vec_IntArray(ptr noundef %65)
  %67 = call i64 @Abc_IsopCheck(ptr noundef %60, ptr noundef %61, ptr noundef %62, i32 noundef %63, i64 noundef %64, ptr noundef %66)
  br label %80

68:                                               ; preds = %52
  %69 = load ptr, ptr %7, align 8, !tbaa !7
  %70 = load ptr, ptr %7, align 8, !tbaa !7
  %71 = getelementptr inbounds [1024 x i64], ptr %12, i64 0, i64 0
  %72 = load i32, ptr %8, align 4, !tbaa !10
  %73 = load i64, ptr %16, align 8, !tbaa !3
  %74 = load ptr, ptr %10, align 8, !tbaa !25
  %75 = call ptr @Vec_IntArray(ptr noundef %74)
  %76 = call i64 @Abc_IsopCheck(ptr noundef %69, ptr noundef %70, ptr noundef %71, i32 noundef %72, i64 noundef %73, ptr noundef %75)
  %77 = load ptr, ptr %7, align 8, !tbaa !7
  %78 = load i32, ptr %8, align 4, !tbaa !10
  %79 = call i32 @Abc_TtWordNum(i32 noundef %78)
  call void @Abc_TtNot(ptr noundef %77, i32 noundef %79)
  br label %80

80:                                               ; preds = %68, %56
  br label %95

81:                                               ; preds = %5
  %82 = load ptr, ptr %7, align 8, !tbaa !7
  %83 = load ptr, ptr %7, align 8, !tbaa !7
  %84 = getelementptr inbounds [1024 x i64], ptr %12, i64 0, i64 0
  %85 = load i32, ptr %8, align 4, !tbaa !10
  %86 = load i64, ptr %16, align 8, !tbaa !3
  %87 = load ptr, ptr %10, align 8, !tbaa !25
  %88 = call ptr @Vec_IntArray(ptr noundef %87)
  %89 = call i64 @Abc_IsopCheck(ptr noundef %82, ptr noundef %83, ptr noundef %84, i32 noundef %85, i64 noundef %86, ptr noundef %88)
  store i64 %89, ptr %13, align 8, !tbaa !3
  store i64 %89, ptr %15, align 8, !tbaa !3
  %90 = load i64, ptr %15, align 8, !tbaa !3
  %91 = load i64, ptr %16, align 8, !tbaa !3
  %92 = icmp eq i64 %90, %91
  br i1 %92, label %93, label %94

93:                                               ; preds = %81
  store i32 -1, ptr %6, align 4
  store i32 1, ptr %17, align 4
  br label %104

94:                                               ; preds = %81
  br label %95

95:                                               ; preds = %94, %80
  %96 = load i64, ptr %15, align 8, !tbaa !3
  %97 = call i32 @Abc_CostCubes(i64 noundef %96)
  %98 = load ptr, ptr %10, align 8, !tbaa !25
  %99 = getelementptr inbounds nuw %struct.Vec_Int_t_, ptr %98, i32 0, i32 1
  store i32 %97, ptr %99, align 4, !tbaa !32
  %100 = load i64, ptr %15, align 8, !tbaa !3
  %101 = load i64, ptr %13, align 8, !tbaa !3
  %102 = icmp ne i64 %100, %101
  %103 = zext i1 %102 to i32
  store i32 %103, ptr %6, align 4
  store i32 1, ptr %17, align 4
  br label %104

104:                                              ; preds = %95, %93, %48
  call void @llvm.lifetime.end.p0(i64 8, ptr %16) #9
  call void @llvm.lifetime.end.p0(i64 8, ptr %15) #9
  call void @llvm.lifetime.end.p0(i64 8, ptr %14) #9
  call void @llvm.lifetime.end.p0(i64 8, ptr %13) #9
  call void @llvm.lifetime.end.p0(i64 8192, ptr %12) #9
  %105 = load i32, ptr %6, align 4
  ret i32 %105
}