; Function Attrs: nounwind uwtable
define range(i32 -1, 2) i32 @Abc_Isop(ptr noundef %0, i32 noundef %1, i32 noundef %2, ptr noundef captures(none) %3, i32 noundef %4) local_unnamed_addr #2 {
  %6 = alloca [1024 x i64], align 16
  call void @llvm.lifetime.start.p0(i64 8192, ptr nonnull %6) #20
  %7 = sext i32 %2 to i64
  %8 = shl nsw i64 %7, 32
  %9 = add nsw i32 %1, -1
  %10 = shl nuw i32 1, %9
  %11 = load i32, ptr %3, align 8, !tbaa !37
  %.not.i = icmp slt i32 %11, %10
  br i1 %.not.i, label %12, label %Vec_IntGrow.exit

12:                                               ; preds = %5
  %13 = getelementptr inbounds nuw i8, ptr %3, i64 8
  %14 = load ptr, ptr %13, align 8, !tbaa !29
  %.not9.i = icmp eq ptr %14, null
  %15 = zext nneg i32 %10 to i64
  %16 = shl nuw nsw i64 %15, 2
  br i1 %.not9.i, label %19, label %17

17:                                               ; preds = %12
  %18 = tail call ptr @realloc(ptr noundef nonnull %14, i64 noundef %16) #21
  br label %21

19:                                               ; preds = %12
  %20 = tail call noalias ptr @malloc(i64 noundef %16) #22
  br label %21

21:                                               ; preds = %19, %17
  %22 = phi ptr [ %18, %17 ], [ %20, %19 ]
  store ptr %22, ptr %13, align 8, !tbaa !29
  store i32 %10, ptr %3, align 8, !tbaa !37
  br label %Vec_IntGrow.exit

Vec_IntGrow.exit:                                 ; preds = %5, %21
  %.not = icmp eq i32 %4, 0
  br i1 %.not, label %53, label %23

23:                                               ; preds = %Vec_IntGrow.exit
  %24 = call i64 @Abc_IsopCheck(ptr noundef %0, ptr noundef %0, ptr noundef nonnull %6, i32 noundef %1, i64 noundef %8, ptr noundef null)
  %25 = icmp slt i32 %1, 7
  %26 = add nsw i32 %1, -6
  %27 = shl nuw i32 1, %26
  %28 = select i1 %25, i32 1, i32 %27
  %29 = icmp sgt i32 %28, 0
  br i1 %29, label %.lr.ph.preheader.i, label %Abc_TtNot.exit

.lr.ph.preheader.i:                               ; preds = %23
  %wide.trip.count.i = zext nneg i32 %28 to i64
  br label %.lr.ph.i

.lr.ph.i:                                         ; preds = %.lr.ph.i, %.lr.ph.preheader.i
  %indvars.iv.i = phi i64 [ 0, %.lr.ph.preheader.i ], [ %indvars.iv.next.i, %.lr.ph.i ]
  %30 = getelementptr inbounds nuw i64, ptr %0, i64 %indvars.iv.i
  %31 = load i64, ptr %30, align 8, !tbaa !3
  %32 = xor i64 %31, -1
  store i64 %32, ptr %30, align 8, !tbaa !3
  %indvars.iv.next.i = add nuw nsw i64 %indvars.iv.i, 1
  %exitcond.not.i = icmp eq i64 %indvars.iv.next.i, %wide.trip.count.i
  br i1 %exitcond.not.i, label %Abc_TtNot.exit, label %.lr.ph.i, !llvm.loop !36

Abc_TtNot.exit:                                   ; preds = %.lr.ph.i, %23
  %33 = call i64 @Abc_IsopCheck(ptr noundef %0, ptr noundef %0, ptr noundef nonnull %6, i32 noundef %1, i64 noundef %24, ptr noundef null)
  %34 = call noundef i64 @llvm.umin.i64(i64 %24, i64 %33)
  %35 = icmp eq i64 %34, %8
  br i1 %35, label %36, label %40

36:                                               ; preds = %Abc_TtNot.exit
  br i1 %29, label %.lr.ph.preheader.i55, label %Abc_TtNot.exit61

.lr.ph.preheader.i55:                             ; preds = %36
  %wide.trip.count.i56 = zext nneg i32 %28 to i64
  br label %.lr.ph.i57

.lr.ph.i57:                                       ; preds = %.lr.ph.i57, %.lr.ph.preheader.i55
  %indvars.iv.i58 = phi i64 [ 0, %.lr.ph.preheader.i55 ], [ %indvars.iv.next.i59, %.lr.ph.i57 ]
  %37 = getelementptr inbounds nuw i64, ptr %0, i64 %indvars.iv.i58
  %38 = load i64, ptr %37, align 8, !tbaa !3
  %39 = xor i64 %38, -1
  store i64 %39, ptr %37, align 8, !tbaa !3
  %indvars.iv.next.i59 = add nuw nsw i64 %indvars.iv.i58, 1
  %exitcond.not.i60 = icmp eq i64 %indvars.iv.next.i59, %wide.trip.count.i56
  br i1 %exitcond.not.i60, label %Abc_TtNot.exit61, label %.lr.ph.i57, !llvm.loop !36

40:                                               ; preds = %Abc_TtNot.exit
  %.not76 = icmp ugt i64 %24, %33
  br i1 %.not76, label %47, label %41

41:                                               ; preds = %40
  br i1 %29, label %.lr.ph.preheader.i62, label %Abc_TtNot.exit68

.lr.ph.preheader.i62:                             ; preds = %41
  %wide.trip.count.i63 = zext nneg i32 %28 to i64
  br label %.lr.ph.i64

.lr.ph.i64:                                       ; preds = %.lr.ph.i64, %.lr.ph.preheader.i62
  %indvars.iv.i65 = phi i64 [ 0, %.lr.ph.preheader.i62 ], [ %indvars.iv.next.i66, %.lr.ph.i64 ]
  %42 = getelementptr inbounds nuw i64, ptr %0, i64 %indvars.iv.i65
  %43 = load i64, ptr %42, align 8, !tbaa !3
  %44 = xor i64 %43, -1
  store i64 %44, ptr %42, align 8, !tbaa !3
  %indvars.iv.next.i66 = add nuw nsw i64 %indvars.iv.i65, 1
  %exitcond.not.i67 = icmp eq i64 %indvars.iv.next.i66, %wide.trip.count.i63
  br i1 %exitcond.not.i67, label %Abc_TtNot.exit68, label %.lr.ph.i64, !llvm.loop !36

Abc_TtNot.exit68:                                 ; preds = %.lr.ph.i64, %41
  %45 = getelementptr i8, ptr %3, i64 8
  %.val = load ptr, ptr %45, align 8, !tbaa !29
  %46 = call i64 @Abc_IsopCheck(ptr noundef %0, ptr noundef %0, ptr noundef nonnull %6, i32 noundef %1, i64 noundef %8, ptr noundef %.val)
  br label %Abc_TtNot.exit75

47:                                               ; preds = %40
  %48 = getelementptr i8, ptr %3, i64 8
  %.val53 = load ptr, ptr %48, align 8, !tbaa !29
  %49 = call i64 @Abc_IsopCheck(ptr noundef %0, ptr noundef %0, ptr noundef nonnull %6, i32 noundef %1, i64 noundef %8, ptr noundef %.val53)
  br i1 %29, label %.lr.ph.preheader.i69, label %Abc_TtNot.exit75

.lr.ph.preheader.i69:                             ; preds = %47
  %wide.trip.count.i70 = zext nneg i32 %28 to i64
  br label %.lr.ph.i71

.lr.ph.i71:                                       ; preds = %.lr.ph.i71, %.lr.ph.preheader.i69
  %indvars.iv.i72 = phi i64 [ 0, %.lr.ph.preheader.i69 ], [ %indvars.iv.next.i73, %.lr.ph.i71 ]
  %50 = getelementptr inbounds nuw i64, ptr %0, i64 %indvars.iv.i72
  %51 = load i64, ptr %50, align 8, !tbaa !3
  %52 = xor i64 %51, -1
  store i64 %52, ptr %50, align 8, !tbaa !3
  %indvars.iv.next.i73 = add nuw nsw i64 %indvars.iv.i72, 1
  %exitcond.not.i74 = icmp eq i64 %indvars.iv.next.i73, %wide.trip.count.i70
  br i1 %exitcond.not.i74, label %Abc_TtNot.exit75, label %.lr.ph.i71, !llvm.loop !36

53:                                               ; preds = %Vec_IntGrow.exit
  %54 = getelementptr i8, ptr %3, i64 8
  %.val54 = load ptr, ptr %54, align 8, !tbaa !29
  %55 = call i64 @Abc_IsopCheck(ptr noundef %0, ptr noundef %0, ptr noundef nonnull %6, i32 noundef %1, i64 noundef %8, ptr noundef %.val54)
  %56 = icmp eq i64 %55, %8
  br i1 %56, label %Abc_TtNot.exit61, label %Abc_TtNot.exit75

Abc_TtNot.exit75:                                 ; preds = %.lr.ph.i71, %47, %53, %Abc_TtNot.exit68
  %.048 = phi i64 [ %24, %Abc_TtNot.exit68 ], [ %55, %53 ], [ %24, %47 ], [ %24, %.lr.ph.i71 ]
  %.047 = phi i64 [ %34, %Abc_TtNot.exit68 ], [ %55, %53 ], [ %34, %47 ], [ %34, %.lr.ph.i71 ]
  %57 = lshr i64 %.047, 32
  %58 = trunc nuw i64 %57 to i32
  %59 = getelementptr inbounds nuw i8, ptr %3, i64 4
  store i32 %58, ptr %59, align 4, !tbaa !26
  %60 = icmp ne i64 %.047, %.048
  %61 = zext i1 %60 to i32
  br label %Abc_TtNot.exit61

Abc_TtNot.exit61:                                 ; preds = %.lr.ph.i57, %36, %53, %Abc_TtNot.exit75
  %.0 = phi i32 [ %61, %Abc_TtNot.exit75 ], [ -1, %53 ], [ -1, %36 ], [ -1, %.lr.ph.i57 ]
  call void @llvm.lifetime.end.p0(i64 8192, ptr nonnull %6) #20
  ret i32 %.0
}